(dp1
S'output'
p2
S"<type 'exceptions.TypeError'> UUID('25e7c368-fd73-44b7-9e34-c4e4531fa92e') is not JSON serializable"
p3
sS'layer'
p4
S'/Users/hanli/SideProj/Server/web2py/applications/sf_parking/views/generic.json'
p5
sS'code'
p6
S"from gluon.serializers import json\nresponse.write(XML(json(response._vars)))\nresponse.write('\\n', escape=False)"
p7
sS'snapshot'
p8
(dp9
sS'traceback'
p10
S'Traceback (most recent call last):\n  File "/Users/hanli/SideProj/Server/web2py/gluon/restricted.py", line 220, in restricted\n    exec ccode in environment\n  File "/Users/hanli/SideProj/Server/web2py/applications/sf_parking/views/generic.json", line 2, in <module>\n  File "/Users/hanli/SideProj/Server/web2py/gluon/serializers.py", line 124, in json\n    default=default).replace(ur\'\\u2028\',\n  File "/System/Library/Frameworks/Python.framework/Versions/2.7/lib/python2.7/json/__init__.py", line 250, in dumps\n    sort_keys=sort_keys, **kw).encode(obj)\n  File "/System/Library/Frameworks/Python.framework/Versions/2.7/lib/python2.7/json/encoder.py", line 207, in encode\n    chunks = self.iterencode(o, _one_shot=True)\n  File "/System/Library/Frameworks/Python.framework/Versions/2.7/lib/python2.7/json/encoder.py", line 270, in iterencode\n    return _iterencode(o, 0)\n  File "/Users/hanli/SideProj/Server/web2py/gluon/serializers.py", line 97, in custom_json\n    raise TypeError(repr(o) + " is not JSON serializable")\nTypeError: UUID(\'25e7c368-fd73-44b7-9e34-c4e4531fa92e\') is not JSON serializable\n'
p11
s.