(dp1
S'output'
p2
S"<type 'exceptions.AttributeError'> 'Table' object has no attribute 'client-version'"
p3
sS'layer'
p4
S'/Users/hanli/SideProj/Server/web2py/applications/sf_parking/controllers/api.py'
p5
sS'code'
p6
S'\n\n@request.restful()\ndef rest_api():\n    def GET(table_name, id):\n    \tif not table_name == \'bike_parking\':\n    \t\traise HTTP(404)\n    \tprint "hey"\n        return dict(bike_parking = db.bike_parking(id))\n    def POST(*args,**vars):\n        #if not table_name == \'bike_parking\':\n    \t#\traise HTTP(404)\n    \tprint "hey"\n    \tprint args\n    \tprint vars\n    \treturn db.bike_parking.validate_and_insert(**vars)\n    def PUT(*args,**vars):\n        return dict()\n    def DELETE(*args,**vars):\n        return dict()\n    return locals()\nresponse._vars=response._caller(rest_api)\n'
p7
sS'snapshot'
p8
(dp9
sS'traceback'
p10
S'Traceback (most recent call last):\n  File "/Users/hanli/SideProj/Server/web2py/gluon/restricted.py", line 220, in restricted\n    exec ccode in environment\n  File "/Users/hanli/SideProj/Server/web2py/applications/sf_parking/controllers/api.py", line 22, in <module>\n  File "/Users/hanli/SideProj/Server/web2py/gluon/globals.py", line 385, in <lambda>\n    self._caller = lambda f: f()\n  File "/Users/hanli/SideProj/Server/web2py/gluon/globals.py", line 349, in f\n    return rest_action(*_self.args, **getattr(_self,\'vars\',{}))\n  File "/Users/hanli/SideProj/Server/web2py/applications/sf_parking/controllers/api.py", line 16, in POST\n    return db.bike_parking.validate_and_insert(**vars)\n  File "/Users/hanli/SideProj/Server/web2py/gluon/dal.py", line 9125, in validate_and_insert\n    value,error = self[key].validate(value)\n  File "/Users/hanli/SideProj/Server/web2py/gluon/dal.py", line 8912, in __getitem__\n    return ogetattr(self, str(key))\nAttributeError: \'Table\' object has no attribute \'client-version\'\n'
p11
s.